target datalayout = "e-m:e-p270:32:32-p271:32:32-p272:64:64-i64:64-i128:128-f80:128-n8:16:32:64-S128"
target triple = "x86_64-unknown-linux-gnu"

%struct.UText = type { i32, i32, i32, i32, i64, i32, i32, i64, i32, i32, ptr, ptr, ptr, ptr, ptr, ptr, ptr, ptr, i64, i32, i32, i64, i32, i32 }
%struct.UTF8Buf = type { i32, i32, i32, i32, i32, i32, [36 x i16], [36 x i8], [102 x i8], i32 }

; Function Attrs: mustprogress nounwind uwtable
define internal noundef i32 @_ZL23utf8TextMapIndexToUTF16PK5UTextl(ptr noundef %ut, i64 noundef %index64) #1 {
entry:
  %ut.addr = alloca ptr, align 8
  %index64.addr = alloca i64, align 8
  %index = alloca i32, align 4
  %u8b = alloca ptr, align 8
  %mapIndex = alloca i32, align 4
  %offset = alloca i32, align 4
  store ptr %ut, ptr %ut.addr, align 8
  store i64 %index64, ptr %index64.addr, align 8
  %0 = load i64, ptr %index64.addr, align 8
  %conv = trunc i64 %0 to i32
  store i32 %conv, ptr %index, align 4
  %1 = load ptr, ptr %ut.addr, align 8
  %p = getelementptr inbounds %struct.UText, ptr %1, i32 0, i32 14
  %2 = load ptr, ptr %p, align 8
  store ptr %2, ptr %u8b, align 8
  %3 = load i32, ptr %index, align 4
  %4 = load ptr, ptr %u8b, align 8
  %toUCharsMapStart = getelementptr inbounds %struct.UTF8Buf, ptr %4, i32 0, i32 5
  %5 = load i32, ptr %toUCharsMapStart, align 4
  %sub = sub nsw i32 %3, %5
  store i32 %sub, ptr %mapIndex, align 4
  %6 = load ptr, ptr %u8b, align 8
  %mapToUChars = getelementptr inbounds %struct.UTF8Buf, ptr %6, i32 0, i32 8
  %7 = load i32, ptr %mapIndex, align 4
  %idxprom = sext i32 %7 to i64
  %arrayidx = getelementptr inbounds [102 x i8], ptr %mapToUChars, i64 0, i64 %idxprom
  %8 = load i8, ptr %arrayidx, align 1
  %conv1 = zext i8 %8 to i32
  %9 = load ptr, ptr %u8b, align 8
  %bufStartIdx = getelementptr inbounds %struct.UTF8Buf, ptr %9, i32 0, i32 2
  %10 = load i32, ptr %bufStartIdx, align 4
  %sub2 = sub nsw i32 %conv1, %10
  store i32 %sub2, ptr %offset, align 4
  %11 = load i32, ptr %offset, align 4
  ret i32 %11
}