; Function Attrs: mustprogress nofree norecurse nosync nounwind willreturn memory(read, inaccessiblemem: none) uwtable
define internal noundef i32 @_ZL23utf8TextMapIndexToUTF16PK5UTextl(ptr nocapture noundef readonly %ut, i64 noundef %index64) #8 {
entry:
  %conv = trunc i64 %index64 to i32
  %p = getelementptr inbounds i8, ptr %ut, i64 80
  %0 = load ptr, ptr %p, align 8
  %toUCharsMapStart = getelementptr inbounds i8, ptr %0, i64 20
  %1 = load i32, ptr %toUCharsMapStart, align 4
  %sub = sub nsw i32 %conv, %1
  %mapToUChars = getelementptr inbounds i8, ptr %0, i64 132
  %idxprom = sext i32 %sub to i64
  %arrayidx = getelementptr inbounds [102 x i8], ptr %mapToUChars, i64 0, i64 %idxprom
  %2 = load i8, ptr %arrayidx, align 1
  %conv1 = zext i8 %2 to i32
  %bufStartIdx = getelementptr inbounds i8, ptr %0, i64 8
  %3 = load i32, ptr %bufStartIdx, align 4
  %sub2 = sub nsw i32 %conv1, %3
  ret i32 %sub2
}